target datalayout = "e-m:e-p270:32:32-p271:32:32-p272:64:64-i64:64-i128:128-f80:128-n8:16:32:64-S128"
target triple = "x86_64-pc-linux-gnu"

%class.QSize = type { i32, i32 }
%class.InterfaceToolbarLineEdit = type <{ %class.QLineEdit, ptr, %class.QRegularExpression, i8, i8, [6 x i8] }>
%class.QLineEdit = type { %class.QWidget }
%class.QWidget = type { %class.QObject, %class.QPaintDevice.base, ptr }
%class.QObject = type { ptr, %class.QScopedPointer }
%class.QScopedPointer = type { ptr }
%class.QPaintDevice.base = type <{ ptr, i16 }>
%class.QRegularExpression = type { %class.QExplicitlySharedDataPointer }
%class.QExplicitlySharedDataPointer = type { ptr }
%class.QRect = type { i32, i32, i32, i32 }
%class.QPoint = type { i32, i32 }

; Function Attrs: mustprogress nounwind uwtable
define linkonce_odr void @_ZN6QPointC2Eii(ptr noundef nonnull align 4 dereferenceable(8) %0, i32 noundef %1, i32 noundef %2) unnamed_addr #2 comdat align 2 {
  %4 = alloca ptr, align 8
  %5 = alloca i32, align 4
  %6 = alloca i32, align 4
  store ptr %0, ptr %4, align 8
  store i32 %1, ptr %5, align 4
  store i32 %2, ptr %6, align 4
  %7 = load ptr, ptr %4, align 8
  %8 = getelementptr inbounds %class.QPoint, ptr %7, i32 0, i32 0
  %9 = load i32, ptr %5, align 4
  store i32 %9, ptr %8, align 4
  %10 = getelementptr inbounds %class.QPoint, ptr %7, i32 0, i32 1
  %11 = load i32, ptr %6, align 4
  store i32 %11, ptr %10, align 4
  ret void
}

; Function Attrs: mustprogress nounwind uwtable
define linkonce_odr noundef i32 @_ZNK5QRect6heightEv(ptr noundef nonnull align 4 dereferenceable(16) %0) #2 comdat align 2 {
  %2 = alloca ptr, align 8
  store ptr %0, ptr %2, align 8
  %3 = load ptr, ptr %2, align 8
  %4 = getelementptr inbounds %class.QRect, ptr %3, i32 0, i32 3
  %5 = load i32, ptr %4, align 4
  %6 = getelementptr inbounds %class.QRect, ptr %3, i32 0, i32 1
  %7 = load i32, ptr %6, align 4
  %8 = sub i32 %5, %7
  %9 = add i32 %8, 1
  ret i32 %9
}

; Function Attrs: mustprogress uwtable
define linkonce_odr void @_ZN7QWidget4moveEii(ptr noundef nonnull align 8 dereferenceable(40) %0, i32 noundef %1, i32 noundef %2) #0 comdat align 2 {
  %4 = alloca ptr, align 8
  %5 = alloca i32, align 4
  %6 = alloca i32, align 4
  %7 = alloca %class.QPoint, align 4
  store ptr %0, ptr %4, align 8
  store i32 %1, ptr %5, align 4
  store i32 %2, ptr %6, align 4
  %8 = load ptr, ptr %4, align 8
  %9 = load i32, ptr %5, align 4
  %10 = load i32, ptr %6, align 4
  call void @_ZN6QPointC2Eii(ptr noundef nonnull align 4 dereferenceable(8) %7, i32 noundef %9, i32 noundef %10) #8
  call void @_ZN7QWidget4moveERK6QPoint(ptr noundef nonnull align 8 dereferenceable(40) %8, ptr noundef nonnull align 4 dereferenceable(8) %7)
  ret void
}

; Function Attrs: mustprogress nounwind uwtable
define linkonce_odr noundef i32 @_ZNK5QRect3topEv(ptr noundef nonnull align 4 dereferenceable(16) %0) #2 comdat align 2 {
  %2 = alloca ptr, align 8
  store ptr %0, ptr %2, align 8
  %3 = load ptr, ptr %2, align 8
  %4 = getelementptr inbounds %class.QRect, ptr %3, i32 0, i32 1
  %5 = load i32, ptr %4, align 4
  ret i32 %5
}

; Function Attrs: mustprogress nounwind uwtable
define linkonce_odr noundef i32 @_ZNK5QSize5widthEv(ptr noundef nonnull align 4 dereferenceable(8) %0) #2 comdat align 2 {
  %2 = alloca ptr, align 8
  store ptr %0, ptr %2, align 8
  %3 = load ptr, ptr %2, align 8
  %4 = getelementptr inbounds %class.QSize, ptr %3, i32 0, i32 0
  %5 = load i32, ptr %4, align 4
  ret i32 %5
}

; Function Attrs: mustprogress nounwind uwtable
define linkonce_odr noundef i32 @_ZNK5QRect5rightEv(ptr noundef nonnull align 4 dereferenceable(16) %0) #2 comdat align 2 {
  %2 = alloca ptr, align 8
  store ptr %0, ptr %2, align 8
  %3 = load ptr, ptr %2, align 8
  %4 = getelementptr inbounds %class.QRect, ptr %3, i32 0, i32 2
  %5 = load i32, ptr %4, align 4
  ret i32 %5
}

; Function Attrs: mustprogress uwtable
define void @_ZN24InterfaceToolbarLineEdit11resizeEventEP12QResizeEvent(ptr noundef nonnull align 8 dereferenceable(58) %0, ptr noundef %1) unnamed_addr #0 align 2 {
  %3 = alloca ptr, align 8
  %4 = alloca ptr, align 8
  %5 = alloca i32, align 4
  %6 = alloca %class.QSize, align 4
  %7 = alloca %class.QRect, align 4
  %8 = alloca %class.QRect, align 4
  %9 = alloca %class.QRect, align 4
  %10 = alloca %class.QRect, align 4
  store ptr %0, ptr %3, align 8
  store ptr %1, ptr %4, align 8
  %11 = load ptr, ptr %3, align 8
  %12 = call noundef ptr @_ZNK7QWidget5styleEv(ptr noundef nonnull align 8 dereferenceable(40) %11)
  %13 = load ptr, ptr %12, align 8
  %14 = getelementptr inbounds ptr, ptr %13, i64 28
  %15 = load ptr, ptr %14, align 8
  %16 = call noundef i32 %15(ptr noundef nonnull align 8 dereferenceable(16) %12, i32 noundef 5, ptr noundef null, ptr noundef null)
  store i32 %16, ptr %5, align 4
  %17 = getelementptr inbounds %class.InterfaceToolbarLineEdit, ptr %11, i32 0, i32 1
  %18 = load ptr, ptr %17, align 8
  %19 = load ptr, ptr %18, align 8
  %20 = getelementptr inbounds ptr, ptr %19, i64 14
  %21 = load ptr, ptr %20, align 8
  %22 = call i64 %21(ptr noundef nonnull align 8 dereferenceable(40) %18)
  store i64 %22, ptr %6, align 4
  %23 = getelementptr inbounds %class.InterfaceToolbarLineEdit, ptr %11, i32 0, i32 1
  %24 = load ptr, ptr %23, align 8
  %25 = call { i64, i64 } @_ZNK7QWidget12contentsRectEv(ptr noundef nonnull align 8 dereferenceable(40) %11)
  %26 = getelementptr inbounds { i64, i64 }, ptr %7, i32 0, i32 0
  %27 = extractvalue { i64, i64 } %25, 0
  store i64 %27, ptr %26, align 4
  %28 = getelementptr inbounds { i64, i64 }, ptr %7, i32 0, i32 1
  %29 = extractvalue { i64, i64 } %25, 1
  store i64 %29, ptr %28, align 4
  %30 = call noundef i32 @_ZNK5QRect5rightEv(ptr noundef nonnull align 4 dereferenceable(16) %7) #8
  %31 = load i32, ptr %5, align 4
  %32 = sub i32 %30, %31
  %33 = call noundef i32 @_ZNK5QSize5widthEv(ptr noundef nonnull align 4 dereferenceable(8) %6) #8
  %34 = sub i32 %32, %33
  %35 = add i32 %34, 2
  %36 = call { i64, i64 } @_ZNK7QWidget12contentsRectEv(ptr noundef nonnull align 8 dereferenceable(40) %11)
  %37 = getelementptr inbounds { i64, i64 }, ptr %8, i32 0, i32 0
  %38 = extractvalue { i64, i64 } %36, 0
  store i64 %38, ptr %37, align 4
  %39 = getelementptr inbounds { i64, i64 }, ptr %8, i32 0, i32 1
  %40 = extractvalue { i64, i64 } %36, 1
  store i64 %40, ptr %39, align 4
  %41 = call noundef i32 @_ZNK5QRect3topEv(ptr noundef nonnull align 4 dereferenceable(16) %8) #8
  call void @_ZN7QWidget4moveEii(ptr noundef nonnull align 8 dereferenceable(40) %24, i32 noundef %35, i32 noundef %41)
  %42 = getelementptr inbounds %class.InterfaceToolbarLineEdit, ptr %11, i32 0, i32 1
  %43 = load ptr, ptr %42, align 8
  %44 = call { i64, i64 } @_ZNK7QWidget12contentsRectEv(ptr noundef nonnull align 8 dereferenceable(40) %11)
  %45 = getelementptr inbounds { i64, i64 }, ptr %9, i32 0, i32 0
  %46 = extractvalue { i64, i64 } %44, 0
  store i64 %46, ptr %45, align 4
  %47 = getelementptr inbounds { i64, i64 }, ptr %9, i32 0, i32 1
  %48 = extractvalue { i64, i64 } %44, 1
  store i64 %48, ptr %47, align 4
  %49 = call noundef i32 @_ZNK5QRect6heightEv(ptr noundef nonnull align 4 dereferenceable(16) %9) #8
  call void @_ZN7QWidget16setMinimumHeightEi(ptr noundef nonnull align 8 dereferenceable(40) %43, i32 noundef %49)
  %50 = getelementptr inbounds %class.InterfaceToolbarLineEdit, ptr %11, i32 0, i32 1
  %51 = load ptr, ptr %50, align 8
  %52 = call { i64, i64 } @_ZNK7QWidget12contentsRectEv(ptr noundef nonnull align 8 dereferenceable(40) %11)
  %53 = getelementptr inbounds { i64, i64 }, ptr %10, i32 0, i32 0
  %54 = extractvalue { i64, i64 } %52, 0
  store i64 %54, ptr %53, align 4
  %55 = getelementptr inbounds { i64, i64 }, ptr %10, i32 0, i32 1
  %56 = extractvalue { i64, i64 } %52, 1
  store i64 %56, ptr %55, align 4
  %57 = call noundef i32 @_ZNK5QRect6heightEv(ptr noundef nonnull align 4 dereferenceable(16) %10) #8
  call void @_ZN7QWidget16setMaximumHeightEi(ptr noundef nonnull align 8 dereferenceable(40) %51, i32 noundef %57)
  ret void
}