; Function Attrs: mustprogress uwtable
define void @_ZN24InterfaceToolbarLineEdit11resizeEventEP12QResizeEvent(ptr noundef nonnull align 8 dereferenceable(58) %0, ptr nocapture noundef readnone %1) unnamed_addr #0 align 2 {
  %3 = alloca %class.QPoint, align 4
  %4 = tail call noundef ptr @_ZNK7QWidget5styleEv(ptr noundef nonnull align 8 dereferenceable(40) %0)
  %5 = load ptr, ptr %4, align 8
  %6 = getelementptr inbounds i8, ptr %5, i64 224
  %7 = load ptr, ptr %6, align 8
  %8 = tail call noundef i32 %7(ptr noundef nonnull align 8 dereferenceable(16) %4, i32 noundef 5, ptr noundef null, ptr noundef null)
  %9 = getelementptr inbounds i8, ptr %0, i64 40
  %10 = load ptr, ptr %9, align 8
  %11 = load ptr, ptr %10, align 8
  %12 = getelementptr inbounds i8, ptr %11, i64 112
  %13 = load ptr, ptr %12, align 8
  %14 = tail call i64 %13(ptr noundef nonnull align 8 dereferenceable(40) %10)
  %.sroa.011.0.extract.trunc = trunc i64 %14 to i32
  %15 = load ptr, ptr %9, align 8
  %16 = tail call { i64, i64 } @_ZNK7QWidget12contentsRectEv(ptr noundef nonnull align 8 dereferenceable(40) %0)
  %17 = extractvalue { i64, i64 } %16, 1
  %.sroa.19.8.extract.trunc = trunc i64 %17 to i32
  %18 = add i32 %8, %.sroa.011.0.extract.trunc
  %reass.sub = sub i32 %.sroa.19.8.extract.trunc, %18
  %19 = add i32 %reass.sub, 2
  %20 = tail call { i64, i64 } @_ZNK7QWidget12contentsRectEv(ptr noundef nonnull align 8 dereferenceable(40) %0)
  %21 = extractvalue { i64, i64 } %20, 0
  %.sroa.16.0.extract.shift = lshr i64 %21, 32
  %.sroa.16.0.extract.trunc = trunc i64 %.sroa.16.0.extract.shift to i32
  call void @llvm.lifetime.start.p0(i64 8, ptr nonnull %3)
  store i32 %19, ptr %3, align 4
  %22 = getelementptr inbounds i8, ptr %3, i64 4
  store i32 %.sroa.16.0.extract.trunc, ptr %22, align 4
  call void @_ZN7QWidget4moveERK6QPoint(ptr noundef nonnull align 8 dereferenceable(40) %15, ptr noundef nonnull align 4 dereferenceable(8) %3)
  call void @llvm.lifetime.end.p0(i64 8, ptr nonnull %3)
  %23 = load ptr, ptr %9, align 8
  %24 = call { i64, i64 } @_ZNK7QWidget12contentsRectEv(ptr noundef nonnull align 8 dereferenceable(40) %0)
  %25 = extractvalue { i64, i64 } %24, 0
  %.sroa.12.0.extract.shift = lshr i64 %25, 32
  %.sroa.12.0.extract.trunc = trunc i64 %.sroa.12.0.extract.shift to i32
  %26 = extractvalue { i64, i64 } %24, 1
  %.sroa.34.8.extract.shift = lshr i64 %26, 32
  %.sroa.34.8.extract.trunc = trunc i64 %.sroa.34.8.extract.shift to i32
  %27 = add i32 %.sroa.34.8.extract.trunc, 1
  %28 = sub i32 %27, %.sroa.12.0.extract.trunc
  call void @_ZN7QWidget16setMinimumHeightEi(ptr noundef nonnull align 8 dereferenceable(40) %23, i32 noundef %28)
  %29 = load ptr, ptr %9, align 8
  %30 = call { i64, i64 } @_ZNK7QWidget12contentsRectEv(ptr noundef nonnull align 8 dereferenceable(40) %0)
  %31 = extractvalue { i64, i64 } %30, 0
  %.sroa.1.0.extract.shift = lshr i64 %31, 32
  %.sroa.1.0.extract.trunc = trunc i64 %.sroa.1.0.extract.shift to i32
  %32 = extractvalue { i64, i64 } %30, 1
  %.sroa.3.8.extract.shift = lshr i64 %32, 32
  %.sroa.3.8.extract.trunc = trunc i64 %.sroa.3.8.extract.shift to i32
  %33 = add i32 %.sroa.3.8.extract.trunc, 1
  %34 = sub i32 %33, %.sroa.1.0.extract.trunc
  call void @_ZN7QWidget16setMaximumHeightEi(ptr noundef nonnull align 8 dereferenceable(40) %29, i32 noundef %34)
  ret void
}